; Function Attrs: mustprogress nofree norecurse nosync nounwind willreturn memory(read, argmem: readwrite, inaccessiblemem: none) uwtable
define internal range(i32 -1, 1) i32 @phar_stream_stat(ptr noundef readonly captures(none) %0, ptr noundef writeonly captures(address_is_null) %1) #6 {
  %.not = icmp eq ptr %1, null
  br i1 %.not, label %38, label %3

3:                                                ; preds = %2
  %4 = getelementptr inbounds nuw i8, ptr %0, i64 8
  %5 = load ptr, ptr %4, align 8, !tbaa !93
  %6 = load ptr, ptr %5, align 8, !tbaa !68
  %7 = getelementptr inbounds nuw i8, ptr %5, i64 32
  %8 = load ptr, ptr %7, align 8, !tbaa !63
  tail call void @llvm.memset.p0.i64(ptr noundef nonnull align 8 dereferenceable(144) %1, i8 0, i64 144, i1 false)
  %9 = getelementptr inbounds nuw i8, ptr %8, i64 146
  %10 = load i16, ptr %9, align 2
  %11 = and i16 %10, 8
  %.not.i = icmp eq i16 %11, 0
  br i1 %.not.i, label %12, label %16

12:                                               ; preds = %3
  %13 = load i32, ptr %8, align 8, !tbaa !34
  %14 = zext i32 %13 to i64
  %15 = getelementptr inbounds nuw i8, ptr %1, i64 48
  store i64 %14, ptr %15, align 8, !tbaa !39
  br label %16

16:                                               ; preds = %3, %12
  %.sink7 = phi i32 [ 32768, %12 ], [ 16384, %3 ]
  %17 = getelementptr inbounds nuw i8, ptr %8, i64 16
  %18 = load i32, ptr %17, align 8, !tbaa !43
  %19 = and i32 %18, 511
  %20 = or disjoint i32 %19, %.sink7
  %21 = getelementptr inbounds nuw i8, ptr %1, i64 24
  store i32 %20, ptr %21, align 8, !tbaa !44
  %.sink53.in.i = getelementptr inbounds nuw i8, ptr %8, i64 4
  %.sink53.i = load i32, ptr %.sink53.in.i, align 4, !tbaa !45
  %22 = zext i32 %.sink53.i to i64
  %23 = getelementptr inbounds nuw i8, ptr %1, i64 88
  store i64 %22, ptr %23, align 8, !tbaa !46
  %24 = getelementptr inbounds nuw i8, ptr %1, i64 72
  store i64 %22, ptr %24, align 8, !tbaa !47
  %25 = getelementptr inbounds nuw i8, ptr %1, i64 104
  store i64 %22, ptr %25, align 8, !tbaa !48
  %26 = getelementptr inbounds nuw i8, ptr %6, i64 316
  %27 = load i16, ptr %26, align 4
  %28 = and i16 %27, 4
  %.not47.i = icmp eq i16 %28, 0
  br i1 %.not47.i, label %29, label %phar_dostat.exit

29:                                               ; preds = %16
  %30 = and i32 %20, 49517
  store i32 %30, ptr %21, align 8, !tbaa !44
  br label %phar_dostat.exit

phar_dostat.exit:                                 ; preds = %16, %29
  %31 = getelementptr inbounds nuw i8, ptr %1, i64 16
  store i64 1, ptr %31, align 8, !tbaa !49
  %32 = getelementptr inbounds nuw i8, ptr %1, i64 40
  store i64 -1, ptr %32, align 8, !tbaa !50
  store i64 12, ptr %1, align 8, !tbaa !51
  %33 = getelementptr inbounds nuw i8, ptr %8, i64 144
  %34 = load i16, ptr %33, align 8, !tbaa !52
  %35 = zext i16 %34 to i64
  %36 = getelementptr inbounds nuw i8, ptr %1, i64 8
  store i64 %35, ptr %36, align 8, !tbaa !53
  %37 = getelementptr inbounds nuw i8, ptr %1, i64 56
  tail call void @llvm.memset.p0.i64(ptr noundef nonnull align 8 dereferenceable(16) %37, i8 -1, i64 16, i1 false)
  br label %38

38:                                               ; preds = %2, %phar_dostat.exit
  %.0 = phi i32 [ 0, %phar_dostat.exit ], [ -1, %2 ]
  ret i32 %.0
}